; Function Attrs: nounwind uwtable
define internal fastcc void @inputText(ptr noundef %0, i32 noundef %1) unnamed_addr #0 {
  %3 = alloca ptr, align 8
  call void @llvm.lifetime.start.p0(i64 8, ptr nonnull %3) #20
  %4 = add i32 %1, 8
  %5 = load ptr, ptr getelementptr inbounds nuw (i8, ptr @_glfw, i64 137272), align 8, !tbaa !385
  %6 = load ptr, ptr getelementptr inbounds nuw (i8, ptr @_glfw, i64 137152), align 8, !tbaa !309
  %7 = call i32 %5(ptr noundef %6, i32 noundef %4, ptr noundef nonnull %3) #20
  %8 = icmp eq i32 %7, 1
  br i1 %8, label %9, label %32

9:                                                ; preds = %2
  %10 = load ptr, ptr %3, align 8, !tbaa !310
  %11 = load i32, ptr %10, align 4, !tbaa !147
  %12 = icmp ne i32 %11, 0
  %13 = load ptr, ptr getelementptr inbounds nuw (i8, ptr @_glfw, i64 137160), align 8
  %14 = icmp ne ptr %13, null
  %or.cond.i = select i1 %12, i1 %14, i1 false
  br i1 %or.cond.i, label %15, label %composeSymbol.exit

15:                                               ; preds = %9
  %16 = load ptr, ptr getelementptr inbounds nuw (i8, ptr @_glfw, i64 137336), align 8, !tbaa !386
  %17 = call i32 %16(ptr noundef nonnull %13, i32 noundef %11) #20
  %.not.i = icmp eq i32 %17, 1
  br i1 %.not.i, label %18, label %composeSymbol.exit

18:                                               ; preds = %15
  %19 = load ptr, ptr getelementptr inbounds nuw (i8, ptr @_glfw, i64 137344), align 8, !tbaa !387
  %20 = load ptr, ptr getelementptr inbounds nuw (i8, ptr @_glfw, i64 137160), align 8, !tbaa !367
  %21 = call i32 %19(ptr noundef %20) #20
  switch i32 %21, label %26 [
    i32 2, label %22
    i32 1, label %composeSymbol.exit
    i32 3, label %composeSymbol.exit
  ]

22:                                               ; preds = %18
  %23 = load ptr, ptr getelementptr inbounds nuw (i8, ptr @_glfw, i64 137352), align 8, !tbaa !388
  %24 = load ptr, ptr getelementptr inbounds nuw (i8, ptr @_glfw, i64 137160), align 8, !tbaa !367
  %25 = call i32 %23(ptr noundef %24) #20
  br label %composeSymbol.exit

26:                                               ; preds = %18
  br label %composeSymbol.exit

composeSymbol.exit:                               ; preds = %9, %15, %18, %18, %22, %26
  %.0.i = phi i32 [ %11, %26 ], [ %25, %22 ], [ %11, %9 ], [ %11, %15 ], [ 0, %18 ], [ 0, %18 ]
  %27 = call i32 @_glfwKeySym2Unicode(i32 noundef %.0.i) #20
  %.not = icmp eq i32 %27, -1
  br i1 %.not, label %32, label %28

28:                                               ; preds = %composeSymbol.exit
  %29 = load i32, ptr getelementptr inbounds nuw (i8, ptr @_glfw, i64 137192), align 8, !tbaa !283
  %30 = and i32 %29, 6
  %.not8 = icmp eq i32 %30, 0
  %31 = zext i1 %.not8 to i32
  call void @_glfwInputChar(ptr noundef %0, i32 noundef %27, i32 noundef %29, i32 noundef %31) #20
  br label %32

32:                                               ; preds = %composeSymbol.exit, %28, %2
  call void @llvm.lifetime.end.p0(i64 8, ptr nonnull %3) #20
  ret void
}